; Function Attrs: mustprogress uwtable
define dso_local noundef zeroext i1 @_ZNK8Function14is_var_visibleEPK8VariablePK9Statement(ptr noundef nonnull readonly align 8 captures(none) dereferenceable(424) %0, ptr noundef %1, ptr noundef readonly captures(none) %2) local_unnamed_addr #4 align 2 {
  %4 = load ptr, ptr %1, align 8
  %5 = getelementptr inbounds nuw i8, ptr %4, i64 16
  %6 = load ptr, ptr %5, align 8
  %7 = tail call noundef zeroext i1 %6(ptr noundef nonnull align 8 dereferenceable(200) %1)
  br i1 %7, label %_ZNK8Function15is_var_on_stackEPK8VariablePK9Statement.exit, label %8

8:                                                ; preds = %3
  %9 = getelementptr inbounds nuw i8, ptr %0, i64 32
  %10 = getelementptr inbounds nuw i8, ptr %0, i64 40
  %11 = load ptr, ptr %10, align 8
  %12 = load ptr, ptr %9, align 8
  %.not15.i = icmp eq ptr %11, %12
  br i1 %.not15.i, label %.preheader.i.preheader, label %.lr.ph.i

.preheader.i.preheader:                           ; preds = %13, %8
  br label %.preheader.i

13:                                               ; preds = %.lr.ph.i
  %14 = add nuw i64 %.01014.i, 1
  %15 = load ptr, ptr %10, align 8
  %16 = load ptr, ptr %9, align 8
  %17 = ptrtoint ptr %15 to i64
  %18 = ptrtoint ptr %16 to i64
  %19 = sub i64 %17, %18
  %20 = ashr exact i64 %19, 3
  %21 = icmp ult i64 %14, %20
  br i1 %21, label %.lr.ph.i, label %.preheader.i.preheader, !llvm.loop !14

.lr.ph.i:                                         ; preds = %8, %13
  %22 = phi ptr [ %16, %13 ], [ %12, %8 ]
  %.01014.i = phi i64 [ %14, %13 ], [ 0, %8 ]
  %23 = getelementptr inbounds ptr, ptr %22, i64 %.01014.i
  %24 = load ptr, ptr %23, align 8
  %25 = tail call noundef zeroext i1 @_ZNK8Variable5matchEPKS_(ptr noundef nonnull align 8 dereferenceable(200) %24, ptr noundef nonnull %1)
  br i1 %25, label %_ZNK8Function15is_var_on_stackEPK8VariablePK9Statement.exit, label %13

.preheader.i:                                     ; preds = %.preheader.i.preheader, %26
  %.pn.i = phi ptr [ %.0.i, %26 ], [ %2, %.preheader.i.preheader ]
  %.0.in.i = getelementptr inbounds nuw i8, ptr %.pn.i, i64 24
  %.0.i = load ptr, ptr %.0.in.i, align 8
  %.not.not.i.not.not = icmp ne ptr %.0.i, null
  br i1 %.not.not.i.not.not, label %26, label %_ZNK8Function15is_var_on_stackEPK8VariablePK9Statement.exit

26:                                               ; preds = %.preheader.i
  %27 = getelementptr inbounds nuw i8, ptr %.0.i, i64 80
  %28 = tail call noundef i32 @_Z20find_variable_in_setRKSt6vectorIP8VariableSaIS1_EEPKS0_(ptr noundef nonnull align 8 dereferenceable(24) %27, ptr noundef nonnull %1)
  %.not12.i = icmp eq i32 %28, -1
  br i1 %.not12.i, label %.preheader.i, label %_ZNK8Function15is_var_on_stackEPK8VariablePK9Statement.exit, !llvm.loop !15

_ZNK8Function15is_var_on_stackEPK8VariablePK9Statement.exit: ; preds = %.lr.ph.i, %26, %.preheader.i, %3
  %29 = phi i1 [ true, %3 ], [ %.not.not.i.not.not, %.preheader.i ], [ %.not.not.i.not.not, %26 ], [ true, %.lr.ph.i ]
  ret i1 %29
}